; Function Attrs: mustprogress nofree norecurse nosync nounwind willreturn memory(readwrite, inaccessiblemem: none) uwtable
define hidden noundef float @_ZNK10ODDLParser5Value8getFloatEv(ptr noundef nonnull readonly align 8 captures(none) dereferenceable(32) %0) local_unnamed_addr #10 align 2 {
  %2 = alloca float, align 4
  %3 = load i32, ptr %0, align 8
  %4 = icmp eq i32 %3, 10
  br i1 %4, label %5, label %10

5:                                                ; preds = %1
  call void @llvm.lifetime.start.p0(i64 4, ptr nonnull %2)
  %6 = getelementptr inbounds nuw i8, ptr %0, i64 16
  %7 = load ptr, ptr %6, align 8
  %8 = getelementptr inbounds nuw i8, ptr %0, i64 8
  %9 = load i64, ptr %8, align 8
  call void @llvm.memcpy.p0.p0.i64(ptr nonnull align 4 %2, ptr align 1 %7, i64 %9, i1 false)
  %.0..0..0..0.1 = load float, ptr %2, align 4
  call void @llvm.lifetime.end.p0(i64 4, ptr nonnull %2)
  br label %13

10:                                               ; preds = %1
  %11 = getelementptr inbounds nuw i8, ptr %0, i64 16
  %12 = load ptr, ptr %11, align 8
  %.0.copyload = load float, ptr %12, align 1
  br label %13

13:                                               ; preds = %10, %5
  %.0 = phi float [ %.0..0..0..0.1, %5 ], [ %.0.copyload, %10 ]
  ret float %.0
}